; Function Attrs: mustprogress nounwind uwtable
define dso_local void @_ZN5clang17ElaboratedTypeLoc15initializeLocalERNS_10ASTContextENS_14SourceLocationE(ptr nocapture noundef nonnull readonly align 8 dereferenceable(16) %0, ptr noundef nonnull align 8 dereferenceable(23096) %1, i32 %2) local_unnamed_addr #0 align 2 {
  %4 = alloca %"class.clang::NestedNameSpecifierLocBuilder", align 8
  %5 = load ptr, ptr %0, align 8
  %6 = getelementptr inbounds nuw i8, ptr %5, i64 16
  %7 = load i32, ptr %6, align 16
  %8 = and i32 %7, 133693440
  %9 = icmp eq i32 %8, 3145728
  br i1 %9, label %_ZNK5clang17ElaboratedTypeLoc7isEmptyEv.exit, label %_ZN5clang17ElaboratedTypeLoc23setElaboratedKeywordLocENS_14SourceLocationE.exit

_ZNK5clang17ElaboratedTypeLoc7isEmptyEv.exit:     ; preds = %3
  %10 = getelementptr inbounds nuw i8, ptr %5, i64 32
  %11 = load ptr, ptr %10, align 16
  %.not.i = icmp eq ptr %11, null
  br i1 %.not.i, label %_ZN5clang29NestedNameSpecifierLocBuilderD2Ev.exit, label %_ZN5clang17ElaboratedTypeLoc23setElaboratedKeywordLocENS_14SourceLocationE.exit

_ZN5clang17ElaboratedTypeLoc23setElaboratedKeywordLocENS_14SourceLocationE.exit: ; preds = %3, %_ZNK5clang17ElaboratedTypeLoc7isEmptyEv.exit
  %12 = getelementptr inbounds nuw i8, ptr %0, i64 8
  %13 = load ptr, ptr %12, align 8
  store i32 %2, ptr %13, align 8
  %.pre = load ptr, ptr %0, align 8
  %.phi.trans.insert = getelementptr inbounds nuw i8, ptr %.pre, i64 32
  %.pre11 = load ptr, ptr %.phi.trans.insert, align 16
  call void @llvm.memset.p0.i64(ptr noundef nonnull align 8 dereferenceable(24) %4, i8 0, i64 24, i1 false)
  %.sroa.2.0.insert.ext = zext i32 %2 to i64
  %.sroa.0.0.insert.insert = mul nuw i64 %.sroa.2.0.insert.ext, 4294967297
  call void @_ZN5clang29NestedNameSpecifierLocBuilder11MakeTrivialERNS_10ASTContextEPNS_19NestedNameSpecifierENS_11SourceRangeE(ptr noundef nonnull align 8 dereferenceable(24) %4, ptr noundef nonnull align 8 dereferenceable(23096) %1, ptr noundef %.pre11, i64 %.sroa.0.0.insert.insert) #15
  %14 = call { ptr, ptr } @_ZNK5clang29NestedNameSpecifierLocBuilder19getWithLocInContextERNS_10ASTContextE(ptr noundef nonnull align 8 dereferenceable(24) %4, ptr noundef nonnull align 8 dereferenceable(23096) %1) #15
  %15 = extractvalue { ptr, ptr } %14, 1
  %16 = load ptr, ptr %0, align 8
  %17 = getelementptr inbounds nuw i8, ptr %16, i64 16
  %18 = load i32, ptr %17, align 16
  %19 = and i32 %18, 133693440
  %20 = icmp eq i32 %19, 3145728
  br i1 %20, label %_ZNK5clang17ElaboratedTypeLoc7isEmptyEv.exit.i8, label %_ZNK5clang17ElaboratedTypeLoc7isEmptyEv.exit.thread.i7

_ZNK5clang17ElaboratedTypeLoc7isEmptyEv.exit.i8:  ; preds = %_ZN5clang17ElaboratedTypeLoc23setElaboratedKeywordLocENS_14SourceLocationE.exit
  %21 = getelementptr inbounds nuw i8, ptr %16, i64 32
  %22 = load ptr, ptr %21, align 16
  %.not.i.i9 = icmp eq ptr %22, null
  br i1 %.not.i.i9, label %_ZN5clang17ElaboratedTypeLoc15setQualifierLocENS_22NestedNameSpecifierLocE.exit, label %_ZNK5clang17ElaboratedTypeLoc7isEmptyEv.exit.thread.i7

_ZNK5clang17ElaboratedTypeLoc7isEmptyEv.exit.thread.i7: ; preds = %_ZNK5clang17ElaboratedTypeLoc7isEmptyEv.exit.i8, %_ZN5clang17ElaboratedTypeLoc23setElaboratedKeywordLocENS_14SourceLocationE.exit
  %23 = getelementptr inbounds nuw i8, ptr %0, i64 8
  %24 = load ptr, ptr %23, align 8
  %25 = getelementptr inbounds nuw i8, ptr %24, i64 8
  store ptr %15, ptr %25, align 8
  br label %_ZN5clang17ElaboratedTypeLoc15setQualifierLocENS_22NestedNameSpecifierLocE.exit

_ZN5clang17ElaboratedTypeLoc15setQualifierLocENS_22NestedNameSpecifierLocE.exit: ; preds = %_ZNK5clang17ElaboratedTypeLoc7isEmptyEv.exit.i8, %_ZNK5clang17ElaboratedTypeLoc7isEmptyEv.exit.thread.i7
  %26 = getelementptr inbounds nuw i8, ptr %4, i64 20
  %27 = load i32, ptr %26, align 4
  %.not.i10 = icmp eq i32 %27, 0
  br i1 %.not.i10, label %_ZN5clang29NestedNameSpecifierLocBuilderD2Ev.exit, label %28

28:                                               ; preds = %_ZN5clang17ElaboratedTypeLoc15setQualifierLocENS_22NestedNameSpecifierLocE.exit
  %29 = getelementptr inbounds nuw i8, ptr %4, i64 8
  %30 = load ptr, ptr %29, align 8
  call void @free(ptr noundef %30) #15
  br label %_ZN5clang29NestedNameSpecifierLocBuilderD2Ev.exit

_ZN5clang29NestedNameSpecifierLocBuilderD2Ev.exit: ; preds = %28, %_ZN5clang17ElaboratedTypeLoc15setQualifierLocENS_22NestedNameSpecifierLocE.exit, %_ZNK5clang17ElaboratedTypeLoc7isEmptyEv.exit
  ret void
}